target datalayout = "e-m:e-p270:32:32-p271:32:32-p272:64:64-i64:64-i128:128-f80:128-n8:16:32:64-S128"
target triple = "x86_64-pc-linux-gnu"

; Function Attrs: nounwind uwtable
define i32 @VP8CheckSignature(ptr noundef %0, i64 noundef %1) #0 {
  %3 = alloca ptr, align 8
  %4 = alloca i64, align 8
  store ptr %0, ptr %3, align 8, !tbaa !37
  store i64 %1, ptr %4, align 8, !tbaa !38
  %5 = load i64, ptr %4, align 8, !tbaa !38
  %6 = icmp uge i64 %5, 3
  br i1 %6, label %7, label %25

7:                                                ; preds = %2
  %8 = load ptr, ptr %3, align 8, !tbaa !37
  %9 = getelementptr inbounds i8, ptr %8, i64 0
  %10 = load i8, ptr %9, align 1, !tbaa !39
  %11 = zext i8 %10 to i32
  %12 = icmp eq i32 %11, 157
  br i1 %12, label %13, label %25

13:                                               ; preds = %7
  %14 = load ptr, ptr %3, align 8, !tbaa !37
  %15 = getelementptr inbounds i8, ptr %14, i64 1
  %16 = load i8, ptr %15, align 1, !tbaa !39
  %17 = zext i8 %16 to i32
  %18 = icmp eq i32 %17, 1
  br i1 %18, label %19, label %25

19:                                               ; preds = %13
  %20 = load ptr, ptr %3, align 8, !tbaa !37
  %21 = getelementptr inbounds i8, ptr %20, i64 2
  %22 = load i8, ptr %21, align 1, !tbaa !39
  %23 = zext i8 %22 to i32
  %24 = icmp eq i32 %23, 42
  br label %25

25:                                               ; preds = %19, %13, %7, %2
  %26 = phi i1 [ false, %13 ], [ false, %7 ], [ false, %2 ], [ %24, %19 ]
  %27 = zext i1 %26 to i32
  ret i32 %27
}

; Function Attrs: nounwind uwtable
define i32 @VP8GetInfo(ptr noundef %0, i64 noundef %1, i64 noundef %2, ptr noundef %3, ptr noundef %4) #0 {
  %6 = alloca i32, align 4
  %7 = alloca ptr, align 8
  %8 = alloca i64, align 8
  %9 = alloca i64, align 8
  %10 = alloca ptr, align 8
  %11 = alloca ptr, align 8
  %12 = alloca i32, align 4
  %13 = alloca i32, align 4
  %14 = alloca i32, align 4
  %15 = alloca i32, align 4
  %16 = alloca i32, align 4
  store ptr %0, ptr %7, align 8, !tbaa !37
  store i64 %1, ptr %8, align 8, !tbaa !38
  store i64 %2, ptr %9, align 8, !tbaa !38
  store ptr %3, ptr %10, align 8, !tbaa !40
  store ptr %4, ptr %11, align 8, !tbaa !40
  %17 = load ptr, ptr %7, align 8, !tbaa !37
  %18 = icmp eq ptr %17, null
  br i1 %18, label %22, label %19

19:                                               ; preds = %5
  %20 = load i64, ptr %8, align 8, !tbaa !38
  %21 = icmp ult i64 %20, 10
  br i1 %21, label %22, label %23

22:                                               ; preds = %19, %5
  store i32 0, ptr %6, align 4
  br label %118

23:                                               ; preds = %19
  %24 = load ptr, ptr %7, align 8, !tbaa !37
  %25 = getelementptr inbounds i8, ptr %24, i64 3
  %26 = load i64, ptr %8, align 8, !tbaa !38
  %27 = sub i64 %26, 3
  %28 = call i32 @VP8CheckSignature(ptr noundef %25, i64 noundef %27)
  %29 = icmp ne i32 %28, 0
  br i1 %29, label %31, label %30

30:                                               ; preds = %23
  store i32 0, ptr %6, align 4
  br label %118

31:                                               ; preds = %23
  call void @llvm.lifetime.start.p0(i64 4, ptr %12) #8
  %32 = load ptr, ptr %7, align 8, !tbaa !37
  %33 = getelementptr inbounds i8, ptr %32, i64 0
  %34 = load i8, ptr %33, align 1, !tbaa !39
  %35 = zext i8 %34 to i32
  %36 = load ptr, ptr %7, align 8, !tbaa !37
  %37 = getelementptr inbounds i8, ptr %36, i64 1
  %38 = load i8, ptr %37, align 1, !tbaa !39
  %39 = zext i8 %38 to i32
  %40 = shl i32 %39, 8
  %41 = or i32 %35, %40
  %42 = load ptr, ptr %7, align 8, !tbaa !37
  %43 = getelementptr inbounds i8, ptr %42, i64 2
  %44 = load i8, ptr %43, align 1, !tbaa !39
  %45 = zext i8 %44 to i32
  %46 = shl i32 %45, 16
  %47 = or i32 %41, %46
  store i32 %47, ptr %12, align 4, !tbaa !8
  call void @llvm.lifetime.start.p0(i64 4, ptr %13) #8
  %48 = load i32, ptr %12, align 4, !tbaa !8
  %49 = and i32 %48, 1
  %50 = icmp ne i32 %49, 0
  %51 = xor i1 %50, true
  %52 = zext i1 %51 to i32
  store i32 %52, ptr %13, align 4, !tbaa !8
  call void @llvm.lifetime.start.p0(i64 4, ptr %14) #8
  %53 = load ptr, ptr %7, align 8, !tbaa !37
  %54 = getelementptr inbounds i8, ptr %53, i64 7
  %55 = load i8, ptr %54, align 1, !tbaa !39
  %56 = zext i8 %55 to i32
  %57 = shl i32 %56, 8
  %58 = load ptr, ptr %7, align 8, !tbaa !37
  %59 = getelementptr inbounds i8, ptr %58, i64 6
  %60 = load i8, ptr %59, align 1, !tbaa !39
  %61 = zext i8 %60 to i32
  %62 = or i32 %57, %61
  %63 = and i32 %62, 16383
  store i32 %63, ptr %14, align 4, !tbaa !8
  call void @llvm.lifetime.start.p0(i64 4, ptr %15) #8
  %64 = load ptr, ptr %7, align 8, !tbaa !37
  %65 = getelementptr inbounds i8, ptr %64, i64 9
  %66 = load i8, ptr %65, align 1, !tbaa !39
  %67 = zext i8 %66 to i32
  %68 = shl i32 %67, 8
  %69 = load ptr, ptr %7, align 8, !tbaa !37
  %70 = getelementptr inbounds i8, ptr %69, i64 8
  %71 = load i8, ptr %70, align 1, !tbaa !39
  %72 = zext i8 %71 to i32
  %73 = or i32 %68, %72
  %74 = and i32 %73, 16383
  store i32 %74, ptr %15, align 4, !tbaa !8
  %75 = load i32, ptr %13, align 4, !tbaa !8
  %76 = icmp ne i32 %75, 0
  br i1 %76, label %78, label %77

77:                                               ; preds = %31
  store i32 0, ptr %6, align 4
  store i32 1, ptr %16, align 4
  br label %117

78:                                               ; preds = %31
  %79 = load i32, ptr %12, align 4, !tbaa !8
  %80 = lshr i32 %79, 1
  %81 = and i32 %80, 7
  %82 = icmp ugt i32 %81, 3
  br i1 %82, label %83, label %84

83:                                               ; preds = %78
  store i32 0, ptr %6, align 4
  store i32 1, ptr %16, align 4
  br label %117

84:                                               ; preds = %78
  %85 = load i32, ptr %12, align 4, !tbaa !8
  %86 = lshr i32 %85, 4
  %87 = and i32 %86, 1
  %88 = icmp ne i32 %87, 0
  br i1 %88, label %90, label %89

89:                                               ; preds = %84
  store i32 0, ptr %6, align 4
  store i32 1, ptr %16, align 4
  br label %117

90:                                               ; preds = %84
  %91 = load i32, ptr %12, align 4, !tbaa !8
  %92 = lshr i32 %91, 5
  %93 = zext i32 %92 to i64
  %94 = load i64, ptr %9, align 8, !tbaa !38
  %95 = icmp uge i64 %93, %94
  br i1 %95, label %96, label %97

96:                                               ; preds = %90
  store i32 0, ptr %6, align 4
  store i32 1, ptr %16, align 4
  br label %117

97:                                               ; preds = %90
  %98 = load i32, ptr %14, align 4, !tbaa !8
  %99 = icmp eq i32 %98, 0
  br i1 %99, label %103, label %100

100:                                              ; preds = %97
  %101 = load i32, ptr %15, align 4, !tbaa !8
  %102 = icmp eq i32 %101, 0
  br i1 %102, label %103, label %104

103:                                              ; preds = %100, %97
  store i32 0, ptr %6, align 4
  store i32 1, ptr %16, align 4
  br label %117

104:                                              ; preds = %100
  %105 = load ptr, ptr %10, align 8, !tbaa !40
  %106 = icmp ne ptr %105, null
  br i1 %106, label %107, label %110

107:                                              ; preds = %104
  %108 = load i32, ptr %14, align 4, !tbaa !8
  %109 = load ptr, ptr %10, align 8, !tbaa !40
  store i32 %108, ptr %109, align 4, !tbaa !8
  br label %110

110:                                              ; preds = %107, %104
  %111 = load ptr, ptr %11, align 8, !tbaa !40
  %112 = icmp ne ptr %111, null
  br i1 %112, label %113, label %116

113:                                              ; preds = %110
  %114 = load i32, ptr %15, align 4, !tbaa !8
  %115 = load ptr, ptr %11, align 8, !tbaa !40
  store i32 %114, ptr %115, align 4, !tbaa !8
  br label %116

116:                                              ; preds = %113, %110
  store i32 1, ptr %6, align 4
  store i32 1, ptr %16, align 4
  br label %117

117:                                              ; preds = %116, %103, %96, %89, %83, %77
  call void @llvm.lifetime.end.p0(i64 4, ptr %15) #8
  call void @llvm.lifetime.end.p0(i64 4, ptr %14) #8
  call void @llvm.lifetime.end.p0(i64 4, ptr %13) #8
  call void @llvm.lifetime.end.p0(i64 4, ptr %12) #8
  br label %118

118:                                              ; preds = %117, %30, %22
  %119 = load i32, ptr %6, align 4
  ret i32 %119
}