; Function Attrs: mustprogress nofree norecurse nosync nounwind willreturn memory(argmem: readwrite) uwtable
define range(i32 0, 2) i32 @VP8GetInfo(ptr noundef readonly captures(address_is_null) %0, i64 noundef %1, i64 noundef %2, ptr noundef writeonly captures(address_is_null) %3, ptr noundef writeonly captures(address_is_null) %4) local_unnamed_addr #7 {
  %6 = icmp eq ptr %0, null
  %7 = icmp ult i64 %1, 10
  %or.cond = or i1 %6, %7
  br i1 %or.cond, label %VP8CheckSignature.exit.thread, label %8

8:                                                ; preds = %5
  %9 = getelementptr inbounds nuw i8, ptr %0, i64 3
  %10 = load i8, ptr %9, align 1, !tbaa !31
  %11 = icmp eq i8 %10, -99
  br i1 %11, label %12, label %VP8CheckSignature.exit.thread

12:                                               ; preds = %8
  %13 = getelementptr inbounds nuw i8, ptr %0, i64 4
  %14 = load i8, ptr %13, align 1, !tbaa !31
  %15 = icmp eq i8 %14, 1
  br i1 %15, label %VP8CheckSignature.exit, label %VP8CheckSignature.exit.thread

VP8CheckSignature.exit:                           ; preds = %12
  %16 = getelementptr inbounds nuw i8, ptr %0, i64 5
  %17 = load i8, ptr %16, align 1, !tbaa !31
  %.not = icmp eq i8 %17, 42
  br i1 %.not, label %18, label %VP8CheckSignature.exit.thread

18:                                               ; preds = %VP8CheckSignature.exit
  %19 = load i8, ptr %0, align 1, !tbaa !31
  %20 = zext i8 %19 to i32
  %21 = getelementptr inbounds nuw i8, ptr %0, i64 1
  %22 = load i16, ptr %21, align 1
  %23 = zext i16 %22 to i32
  %24 = shl nuw nsw i32 %23, 8
  %25 = or disjoint i32 %24, %20
  %26 = getelementptr inbounds nuw i8, ptr %0, i64 7
  %27 = load i8, ptr %26, align 1, !tbaa !31
  %28 = zext i8 %27 to i32
  %29 = shl nuw nsw i32 %28, 8
  %30 = getelementptr inbounds nuw i8, ptr %0, i64 6
  %31 = load i8, ptr %30, align 1, !tbaa !31
  %32 = zext i8 %31 to i32
  %.masked = and i32 %29, 16128
  %33 = or disjoint i32 %.masked, %32
  %34 = getelementptr inbounds nuw i8, ptr %0, i64 9
  %35 = load i8, ptr %34, align 1, !tbaa !31
  %36 = zext i8 %35 to i32
  %37 = shl nuw nsw i32 %36, 8
  %38 = getelementptr inbounds nuw i8, ptr %0, i64 8
  %39 = load i8, ptr %38, align 1, !tbaa !31
  %40 = zext i8 %39 to i32
  %.masked35 = and i32 %37, 16128
  %41 = or disjoint i32 %.masked35, %40
  %42 = and i32 %20, 25
  %or.cond42.not46 = icmp eq i32 %42, 16
  %43 = lshr i32 %25, 5
  %44 = zext nneg i32 %43 to i64
  %.not38 = icmp ugt i64 %2, %44
  %or.cond44 = select i1 %or.cond42.not46, i1 %.not38, i1 false
  br i1 %or.cond44, label %45, label %VP8CheckSignature.exit.thread

45:                                               ; preds = %18
  %46 = icmp eq i32 %33, 0
  %47 = icmp eq i32 %41, 0
  %or.cond3 = select i1 %46, i1 true, i1 %47
  br i1 %or.cond3, label %VP8CheckSignature.exit.thread, label %48

48:                                               ; preds = %45
  %.not39 = icmp eq ptr %3, null
  br i1 %.not39, label %50, label %49

49:                                               ; preds = %48
  store i32 %33, ptr %3, align 4, !tbaa !32
  br label %50

50:                                               ; preds = %49, %48
  %.not40 = icmp eq ptr %4, null
  br i1 %.not40, label %VP8CheckSignature.exit.thread, label %51

51:                                               ; preds = %50
  store i32 %41, ptr %4, align 4, !tbaa !32
  br label %VP8CheckSignature.exit.thread

VP8CheckSignature.exit.thread:                    ; preds = %8, %12, %18, %45, %51, %50, %VP8CheckSignature.exit, %5
  %.0 = phi i32 [ 0, %5 ], [ 0, %VP8CheckSignature.exit ], [ 0, %18 ], [ 0, %45 ], [ 1, %51 ], [ 1, %50 ], [ 0, %12 ], [ 0, %8 ]
  ret i32 %.0
}